target datalayout = "e-m:e-p270:32:32-p271:32:32-p272:64:64-i64:64-i128:128-f80:128-n8:16:32:64-S128"
target triple = "x86_64-pc-linux-gnu"

%"struct.llvm::DWARFDebugLine::Sequence" = type <{ i64, i64, i64, i32, i32, i8, [7 x i8] }>

; Function Attrs: mustprogress nounwind uwtable
define dso_local void @_ZN4llvm14DWARFDebugLine8Sequence5resetEv(ptr noundef nonnull align 8 dereferenceable(33) %0) #0 align 2 {
  %2 = alloca ptr, align 8
  store ptr %0, ptr %2, align 8
  %3 = load ptr, ptr %2, align 8
  %4 = getelementptr inbounds nuw %"struct.llvm::DWARFDebugLine::Sequence", ptr %3, i32 0, i32 0
  store i64 0, ptr %4, align 8
  %5 = getelementptr inbounds nuw %"struct.llvm::DWARFDebugLine::Sequence", ptr %3, i32 0, i32 1
  store i64 0, ptr %5, align 8
  %6 = getelementptr inbounds nuw %"struct.llvm::DWARFDebugLine::Sequence", ptr %3, i32 0, i32 2
  store i64 -1, ptr %6, align 8
  %7 = getelementptr inbounds nuw %"struct.llvm::DWARFDebugLine::Sequence", ptr %3, i32 0, i32 3
  store i32 0, ptr %7, align 8
  %8 = getelementptr inbounds nuw %"struct.llvm::DWARFDebugLine::Sequence", ptr %3, i32 0, i32 4
  store i32 0, ptr %8, align 4
  %9 = getelementptr inbounds nuw %"struct.llvm::DWARFDebugLine::Sequence", ptr %3, i32 0, i32 5
  store i8 1, ptr %9, align 8
  ret void
}

; Function Attrs: mustprogress nounwind uwtable
define dso_local void @_ZN4llvm14DWARFDebugLine8SequenceC2Ev(ptr noundef nonnull align 8 dereferenceable(33) %0) unnamed_addr #0 align 2 {
  %2 = alloca ptr, align 8
  store ptr %0, ptr %2, align 8
  %3 = load ptr, ptr %2, align 8
  call void @_ZN4llvm14DWARFDebugLine8Sequence5resetEv(ptr noundef nonnull align 8 dereferenceable(33) %3)
  ret void
}