; Function Attrs: mustprogress nofree norecurse nosync nounwind willreturn memory(argmem: write) uwtable
define dso_local void @_ZN4llvm14DWARFDebugLine8SequenceC2Ev(ptr noundef nonnull writeonly align 8 captures(none) dereferenceable(33) initializes((0, 33)) %0) unnamed_addr #0 align 2 {
  %2 = getelementptr inbounds nuw i8, ptr %0, i64 16
  tail call void @llvm.memset.p0.i64(ptr noundef nonnull align 8 dereferenceable(33) %0, i8 0, i64 16, i1 false)
  store i64 -1, ptr %2, align 8
  %3 = getelementptr inbounds nuw i8, ptr %0, i64 24
  store i32 0, ptr %3, align 8
  %4 = getelementptr inbounds nuw i8, ptr %0, i64 28
  store i32 0, ptr %4, align 4
  %5 = getelementptr inbounds nuw i8, ptr %0, i64 32
  store i8 1, ptr %5, align 8
  ret void
}